ARM GAS  C:\Users\matil\AppData\Local\Temp\ccyDoMjQ.s 			page 1


   1              		.cpu cortex-m0plus
   2              		.eabi_attribute 20, 1
   3              		.eabi_attribute 21, 1
   4              		.eabi_attribute 23, 3
   5              		.eabi_attribute 24, 1
   6              		.eabi_attribute 25, 1
   7              		.eabi_attribute 26, 1
   8              		.eabi_attribute 30, 1
   9              		.eabi_attribute 34, 0
  10              		.eabi_attribute 18, 4
  11              		.file	"TEMP_PID.c"
  12              		.text
  13              	.Ltext0:
  14              		.cfi_sections	.debug_frame
  15              		.section	.text.TEMP_PID_Init,"ax",%progbits
  16              		.align	1
  17              		.global	TEMP_PID_Init
  18              		.arch armv6s-m
  19              		.syntax unified
  20              		.code	16
  21              		.thumb_func
  22              		.fpu softvfp
  24              	TEMP_PID_Init:
  25              	.LFB284:
  26              		.file 1 "Src/TEMP_PID.c"
   1:Src/TEMP_PID.c **** #include "usart.h"
   2:Src/TEMP_PID.c **** #include <stdio.h>
   3:Src/TEMP_PID.c **** #include "state.h"
   4:Src/TEMP_PID.c **** #include "usart_utils.h"
   5:Src/TEMP_PID.c **** #include "ADC.h"
   6:Src/TEMP_PID.c **** #include "spi.h"
   7:Src/TEMP_PID.c **** #include "DAC.h"
   8:Src/TEMP_PID.c **** #include "tim.h"
   9:Src/TEMP_PID.c **** #include "PID.h"
  10:Src/TEMP_PID.c **** #include "values.h"
  11:Src/TEMP_PID.c **** #include <stdlib.h>
  12:Src/TEMP_PID.c **** 
  13:Src/TEMP_PID.c **** extern state State;
  14:Src/TEMP_PID.c **** 
  15:Src/TEMP_PID.c **** void TEMP_PID_Init()
  16:Src/TEMP_PID.c **** {
  27              		.loc 1 16 1 view -0
  28              		.cfi_startproc
  29              		@ args = 0, pretend = 0, frame = 0
  30              		@ frame_needed = 0, uses_anonymous_args = 0
  31              		@ link register save eliminated.
  17:Src/TEMP_PID.c ****     State.TEMP = 0;
  32              		.loc 1 17 5 view .LVU1
  33              		.loc 1 17 16 is_stmt 0 view .LVU2
  34 0000 084B     		ldr	r3, .L2
  35 0002 0022     		movs	r2, #0
  36 0004 A621     		movs	r1, #166
  37 0006 C900     		lsls	r1, r1, #3
  38 0008 5A50     		str	r2, [r3, r1]
  18:Src/TEMP_PID.c ****     State.TEMP_PID_PWM = 0;
  39              		.loc 1 18 5 is_stmt 1 view .LVU3
  40              		.loc 1 18 24 is_stmt 0 view .LVU4
ARM GAS  C:\Users\matil\AppData\Local\Temp\ccyDoMjQ.s 			page 2


  41 000a 1031     		adds	r1, r1, #16
  42 000c 5A50     		str	r2, [r3, r1]
  19:Src/TEMP_PID.c ****     State.TEMP_PID_DIR = 1;
  43              		.loc 1 19 5 is_stmt 1 view .LVU5
  44              		.loc 1 19 24 is_stmt 0 view .LVU6
  45 000e 0649     		ldr	r1, .L2+4
  46 0010 0120     		movs	r0, #1
  47 0012 5850     		str	r0, [r3, r1]
  20:Src/TEMP_PID.c ****     State.TEMP_PID_P_Error = 0;
  48              		.loc 1 20 5 is_stmt 1 view .LVU7
  49              		.loc 1 20 28 is_stmt 0 view .LVU8
  50 0014 0C39     		subs	r1, r1, #12
  51 0016 5A50     		str	r2, [r3, r1]
  21:Src/TEMP_PID.c ****     State.TEMP_PID_I_Error = 0;
  52              		.loc 1 21 5 is_stmt 1 view .LVU9
  53              		.loc 1 21 28 is_stmt 0 view .LVU10
  54 0018 0449     		ldr	r1, .L2+8
  55 001a 5A50     		str	r2, [r3, r1]
  22:Src/TEMP_PID.c ****     State.TEMP_PID_SetPoint = 35000000;
  56              		.loc 1 22 5 is_stmt 1 view .LVU11
  57              		.loc 1 22 29 is_stmt 0 view .LVU12
  58 001c 044A     		ldr	r2, .L2+12
  59 001e 0549     		ldr	r1, .L2+16
  60 0020 9950     		str	r1, [r3, r2]
  23:Src/TEMP_PID.c **** }
  61              		.loc 1 23 1 view .LVU13
  62              		@ sp needed
  63 0022 7047     		bx	lr
  64              	.L3:
  65              		.align	2
  66              	.L2:
  67 0024 00000000 		.word	State
  68 0028 44050000 		.word	1348
  69 002c 3C050000 		.word	1340
  70 0030 34050000 		.word	1332
  71 0034 C00E1602 		.word	35000000
  72              		.cfi_endproc
  73              	.LFE284:
  75              		.global	__aeabi_idiv
  76              		.section	.rodata.TEMP_PID.str1.4,"aMS",%progbits,1
  77              		.align	2
  78              	.LC2:
  79 0000 1B5B303B 		.ascii	"\033[0;32m\000"
  79      33326D00 
  80              		.align	2
  81              	.LC5:
  82 0008 54656D70 		.ascii	"Temperature locked\012\000"
  82      65726174 
  82      75726520 
  82      6C6F636B 
  82      65640A00 
  83              		.align	2
  84              	.LC7:
  85 001c 1B5B306D 		.ascii	"\033[0m\000"
  85      00
  86 0021 000000   		.align	2
  87              	.LC9:
ARM GAS  C:\Users\matil\AppData\Local\Temp\ccyDoMjQ.s 			page 3


  88 0024 1B5B303B 		.ascii	"\033[0;31m\000"
  88      33316D00 
  89              		.align	2
  90              	.LC11:
  91 002c 54656D70 		.ascii	"Temperature unlocked\012\000"
  91      65726174 
  91      75726520 
  91      756E6C6F 
  91      636B6564 
  92              		.section	.text.TEMP_PID,"ax",%progbits
  93              		.align	1
  94              		.global	TEMP_PID
  95              		.syntax unified
  96              		.code	16
  97              		.thumb_func
  98              		.fpu softvfp
 100              	TEMP_PID:
 101              	.LFB285:
  24:Src/TEMP_PID.c **** 
  25:Src/TEMP_PID.c **** void TEMP_PID()
  26:Src/TEMP_PID.c **** {
 102              		.loc 1 26 1 is_stmt 1 view -0
 103              		.cfi_startproc
 104              		@ args = 0, pretend = 0, frame = 104
 105              		@ frame_needed = 0, uses_anonymous_args = 0
 106 0000 F0B5     		push	{r4, r5, r6, r7, lr}
 107              	.LCFI0:
 108              		.cfi_def_cfa_offset 20
 109              		.cfi_offset 4, -20
 110              		.cfi_offset 5, -16
 111              		.cfi_offset 6, -12
 112              		.cfi_offset 7, -8
 113              		.cfi_offset 14, -4
 114 0002 9BB0     		sub	sp, sp, #108
 115              	.LCFI1:
 116              		.cfi_def_cfa_offset 128
  27:Src/TEMP_PID.c **** 
  28:Src/TEMP_PID.c ****     State.TEMP = Temperature();
 117              		.loc 1 28 5 view .LVU15
 118              		.loc 1 28 18 is_stmt 0 view .LVU16
 119 0004 FFF7FEFF 		bl	Temperature
 120              	.LVL0:
 121              		.loc 1 28 16 view .LVU17
 122 0008 6B4A     		ldr	r2, .L15
 123 000a A623     		movs	r3, #166
 124 000c DB00     		lsls	r3, r3, #3
 125 000e D050     		str	r0, [r2, r3]
  29:Src/TEMP_PID.c ****     if (State.TEMP > 40000000)
 126              		.loc 1 29 5 is_stmt 1 view .LVU18
 127              		.loc 1 29 8 is_stmt 0 view .LVU19
 128 0010 6A4B     		ldr	r3, .L15+4
 129 0012 9842     		cmp	r0, r3
 130 0014 45DC     		bgt	.L12
  30:Src/TEMP_PID.c ****     {
  31:Src/TEMP_PID.c ****         TIM1->CCR1 = 0;
  32:Src/TEMP_PID.c ****         return;
  33:Src/TEMP_PID.c ****     }
ARM GAS  C:\Users\matil\AppData\Local\Temp\ccyDoMjQ.s 			page 4


  34:Src/TEMP_PID.c **** 
  35:Src/TEMP_PID.c ****     State.TEMP_PID_P_Error = (State.TEMP - State.TEMP_PID_SetPoint) / 1000;
 131              		.loc 1 35 5 is_stmt 1 view .LVU20
 132              		.loc 1 35 49 is_stmt 0 view .LVU21
 133 0016 684D     		ldr	r5, .L15
 134 0018 694B     		ldr	r3, .L15+8
 135 001a EB58     		ldr	r3, [r5, r3]
 136              		.loc 1 35 42 view .LVU22
 137 001c C01A     		subs	r0, r0, r3
 138              		.loc 1 35 69 view .LVU23
 139 001e FA21     		movs	r1, #250
 140 0020 8900     		lsls	r1, r1, #2
 141 0022 FFF7FEFF 		bl	__aeabi_idiv
 142              	.LVL1:
 143 0026 0600     		movs	r6, r0
 144              		.loc 1 35 28 view .LVU24
 145 0028 A723     		movs	r3, #167
 146 002a DB00     		lsls	r3, r3, #3
 147 002c E850     		str	r0, [r5, r3]
  36:Src/TEMP_PID.c ****     State.TEMP_PID_I_Error = State.TEMP_PID_I_Error + State.TEMP_PID_P_Error;
 148              		.loc 1 36 5 is_stmt 1 view .LVU25
 149              		.loc 1 36 35 is_stmt 0 view .LVU26
 150 002e 654B     		ldr	r3, .L15+12
 151              		.loc 1 36 53 view .LVU27
 152 0030 EA58     		ldr	r2, [r5, r3]
 153 0032 8018     		adds	r0, r0, r2
 154              		.loc 1 36 28 view .LVU28
 155 0034 E850     		str	r0, [r5, r3]
  37:Src/TEMP_PID.c **** 
  38:Src/TEMP_PID.c ****     int sat = -(State.TEMP_PID_P_Error / 50 + State.TEMP_PID_I_Error / 400);
 156              		.loc 1 38 5 is_stmt 1 view .LVU29
 157              		.loc 1 38 70 is_stmt 0 view .LVU30
 158 0036 6449     		ldr	r1, .L15+16
 159 0038 FFF7FEFF 		bl	__aeabi_idiv
 160              	.LVL2:
 161 003c 0400     		movs	r4, r0
 162              		.loc 1 38 40 view .LVU31
 163 003e 3221     		movs	r1, #50
 164 0040 4942     		rsbs	r1, r1, #0
 165 0042 3000     		movs	r0, r6
 166 0044 FFF7FEFF 		bl	__aeabi_idiv
 167              	.LVL3:
 168              		.loc 1 38 9 view .LVU32
 169 0048 2018     		adds	r0, r4, r0
 170              	.LVL4:
  39:Src/TEMP_PID.c **** 
  40:Src/TEMP_PID.c ****     State.TEMP_PID_DIR = sat > 0;
 171              		.loc 1 40 5 is_stmt 1 view .LVU33
 172              		.loc 1 40 30 is_stmt 0 view .LVU34
 173 004a C317     		asrs	r3, r0, #31
 174 004c 1B1A     		subs	r3, r3, r0
 175 004e DB0F     		lsrs	r3, r3, #31
 176              		.loc 1 40 24 view .LVU35
 177 0050 5E4A     		ldr	r2, .L15+20
 178 0052 AB50     		str	r3, [r5, r2]
  41:Src/TEMP_PID.c **** 
  42:Src/TEMP_PID.c ****     sat = abs(sat);
ARM GAS  C:\Users\matil\AppData\Local\Temp\ccyDoMjQ.s 			page 5


 179              		.loc 1 42 5 is_stmt 1 view .LVU36
 180              		.loc 1 42 9 is_stmt 0 view .LVU37
 181 0054 C317     		asrs	r3, r0, #31
 182 0056 C018     		adds	r0, r0, r3
 183              	.LVL5:
 184              		.loc 1 42 9 view .LVU38
 185 0058 5840     		eors	r0, r3
 186              	.LVL6:
  43:Src/TEMP_PID.c **** 
  44:Src/TEMP_PID.c ****     if (sat > 100)
 187              		.loc 1 44 5 is_stmt 1 view .LVU39
 188              		.loc 1 44 8 is_stmt 0 view .LVU40
 189 005a 6428     		cmp	r0, #100
 190 005c 00DD     		ble	.L7
  45:Src/TEMP_PID.c ****     {
  46:Src/TEMP_PID.c ****         sat = 100;
 191              		.loc 1 46 13 view .LVU41
 192 005e 6420     		movs	r0, #100
 193              	.LVL7:
 194              	.L7:
  47:Src/TEMP_PID.c ****     }
  48:Src/TEMP_PID.c ****     else if (sat < 0)
  49:Src/TEMP_PID.c ****     {
  50:Src/TEMP_PID.c ****         sat = 0;
  51:Src/TEMP_PID.c ****     }
  52:Src/TEMP_PID.c ****     State.TEMP_PID_PWM = sat;
 195              		.loc 1 52 5 is_stmt 1 view .LVU42
 196              		.loc 1 52 24 is_stmt 0 view .LVU43
 197 0060 554C     		ldr	r4, .L15
 198 0062 A823     		movs	r3, #168
 199 0064 DB00     		lsls	r3, r3, #3
 200 0066 E050     		str	r0, [r4, r3]
  53:Src/TEMP_PID.c ****     TIM1->CCR1 = State.TEMP_PID_PWM;
 201              		.loc 1 53 5 is_stmt 1 view .LVU44
 202              		.loc 1 53 16 is_stmt 0 view .LVU45
 203 0068 594B     		ldr	r3, .L15+24
 204 006a 5863     		str	r0, [r3, #52]
  54:Src/TEMP_PID.c **** 
  55:Src/TEMP_PID.c ****     HAL_GPIO_WritePin(PEL_DIR_GPIO_Port, PEL_DIR_Pin, State.TEMP_PID_DIR);
 205              		.loc 1 55 5 is_stmt 1 view .LVU46
 206 006c 574B     		ldr	r3, .L15+20
 207 006e E25C     		ldrb	r2, [r4, r3]
 208 0070 0221     		movs	r1, #2
 209 0072 5848     		ldr	r0, .L15+28
 210              	.LVL8:
 211              		.loc 1 55 5 is_stmt 0 view .LVU47
 212 0074 FFF7FEFF 		bl	HAL_GPIO_WritePin
 213              	.LVL9:
  56:Src/TEMP_PID.c **** 
  57:Src/TEMP_PID.c ****     if (abs(State.TEMP_PID_P_Error) < 200)
 214              		.loc 1 57 5 is_stmt 1 view .LVU48
 215              		.loc 1 57 18 is_stmt 0 view .LVU49
 216 0078 A723     		movs	r3, #167
 217 007a DB00     		lsls	r3, r3, #3
 218 007c E358     		ldr	r3, [r4, r3]
 219              		.loc 1 57 37 view .LVU50
 220 007e C733     		adds	r3, r3, #199
ARM GAS  C:\Users\matil\AppData\Local\Temp\ccyDoMjQ.s 			page 6


 221              		.loc 1 57 8 view .LVU51
 222 0080 C722     		movs	r2, #199
 223 0082 5200     		lsls	r2, r2, #1
 224 0084 9342     		cmp	r3, r2
 225 0086 52D8     		bhi	.L8
  58:Src/TEMP_PID.c ****     {
  59:Src/TEMP_PID.c ****         if (State.TEMP_PID_LOCK_count < 10)
 226              		.loc 1 59 9 is_stmt 1 view .LVU52
 227              		.loc 1 59 18 is_stmt 0 view .LVU53
 228 0088 4B4A     		ldr	r2, .L15
 229 008a 534B     		ldr	r3, .L15+32
 230 008c D358     		ldr	r3, [r2, r3]
 231              		.loc 1 59 12 view .LVU54
 232 008e 092B     		cmp	r3, #9
 233 0090 0CDC     		bgt	.L9
  60:Src/TEMP_PID.c ****         {
  61:Src/TEMP_PID.c ****             State.TEMP_PID_LOCK_count++;
 234              		.loc 1 61 13 is_stmt 1 view .LVU55
 235              		.loc 1 61 38 is_stmt 0 view .LVU56
 236 0092 0133     		adds	r3, r3, #1
 237 0094 5049     		ldr	r1, .L15+32
 238 0096 5350     		str	r3, [r2, r1]
  62:Src/TEMP_PID.c ****             State.TEMP_PID_LOCK = 0;
 239              		.loc 1 62 13 is_stmt 1 view .LVU57
 240              		.loc 1 62 33 is_stmt 0 view .LVU58
 241 0098 A923     		movs	r3, #169
 242 009a DB00     		lsls	r3, r3, #3
 243 009c 0021     		movs	r1, #0
 244 009e D150     		str	r1, [r2, r3]
 245 00a0 02E0     		b	.L4
 246              	.L12:
  31:Src/TEMP_PID.c ****         return;
 247              		.loc 1 31 9 is_stmt 1 view .LVU59
  31:Src/TEMP_PID.c ****         return;
 248              		.loc 1 31 20 is_stmt 0 view .LVU60
 249 00a2 4B4B     		ldr	r3, .L15+24
 250 00a4 0022     		movs	r2, #0
 251 00a6 5A63     		str	r2, [r3, #52]
  32:Src/TEMP_PID.c ****     }
 252              		.loc 1 32 9 is_stmt 1 view .LVU61
 253              	.L4:
  63:Src/TEMP_PID.c ****         }
  64:Src/TEMP_PID.c ****         else
  65:Src/TEMP_PID.c ****         {
  66:Src/TEMP_PID.c ****             if (State.TEMP_PID_LOCK == 0)
  67:Src/TEMP_PID.c ****             {
  68:Src/TEMP_PID.c ****                 SERIAL_WRITE_GREEN("Temperature locked\n");
  69:Src/TEMP_PID.c ****             }
  70:Src/TEMP_PID.c ****             State.TEMP_PID_LOCK = 1;
  71:Src/TEMP_PID.c ****         }
  72:Src/TEMP_PID.c ****     }
  73:Src/TEMP_PID.c ****     else
  74:Src/TEMP_PID.c ****     {
  75:Src/TEMP_PID.c ****         State.TEMP_PID_LOCK_count = 0;
  76:Src/TEMP_PID.c ****         if (State.TEMP_PID_LOCK == 1)
  77:Src/TEMP_PID.c ****         {
  78:Src/TEMP_PID.c ****             SERIAL_WRITE_RED("Temperature unlocked\n");
ARM GAS  C:\Users\matil\AppData\Local\Temp\ccyDoMjQ.s 			page 7


  79:Src/TEMP_PID.c ****         }
  80:Src/TEMP_PID.c ****         State.TEMP_PID_LOCK = 0;
  81:Src/TEMP_PID.c ****     }
  82:Src/TEMP_PID.c **** }
 254              		.loc 1 82 1 is_stmt 0 view .LVU62
 255 00a8 1BB0     		add	sp, sp, #108
 256              		@ sp needed
 257 00aa F0BD     		pop	{r4, r5, r6, r7, pc}
 258              	.L9:
  66:Src/TEMP_PID.c ****             {
 259              		.loc 1 66 13 is_stmt 1 view .LVU63
  66:Src/TEMP_PID.c ****             {
 260              		.loc 1 66 22 is_stmt 0 view .LVU64
 261 00ac 424A     		ldr	r2, .L15
 262 00ae A923     		movs	r3, #169
 263 00b0 DB00     		lsls	r3, r3, #3
 264 00b2 D358     		ldr	r3, [r2, r3]
  66:Src/TEMP_PID.c ****             {
 265              		.loc 1 66 16 view .LVU65
 266 00b4 002B     		cmp	r3, #0
 267 00b6 05D0     		beq	.L13
 268              	.L10:
  68:Src/TEMP_PID.c ****             }
 269              		.loc 1 68 17 is_stmt 1 view .LVU66
  68:Src/TEMP_PID.c ****             }
 270              		.loc 1 68 59 view .LVU67
  70:Src/TEMP_PID.c ****         }
 271              		.loc 1 70 13 view .LVU68
  70:Src/TEMP_PID.c ****         }
 272              		.loc 1 70 33 is_stmt 0 view .LVU69
 273 00b8 3F4A     		ldr	r2, .L15
 274 00ba A923     		movs	r3, #169
 275 00bc DB00     		lsls	r3, r3, #3
 276 00be 0121     		movs	r1, #1
 277 00c0 D150     		str	r1, [r2, r3]
 278 00c2 F1E7     		b	.L4
 279              	.L13:
 280              	.LBB2:
  68:Src/TEMP_PID.c ****             }
 281              		.loc 1 68 17 is_stmt 1 view .LVU70
 282 00c4 01AC     		add	r4, sp, #4
 283 00c6 6022     		movs	r2, #96
 284 00c8 0021     		movs	r1, #0
 285 00ca 02A8     		add	r0, sp, #8
 286 00cc FFF7FEFF 		bl	memset
 287              	.LVL10:
  68:Src/TEMP_PID.c ****             }
 288              		.loc 1 68 17 view .LVU71
 289 00d0 424B     		ldr	r3, .L15+36
 290 00d2 2200     		movs	r2, r4
 291 00d4 03CB     		ldmia	r3!, {r0, r1}
 292 00d6 03C2     		stmia	r2!, {r0, r1}
 293              	.LVL11:
  68:Src/TEMP_PID.c ****             }
 294              		.loc 1 68 17 view .LVU72
 295 00d8 FA26     		movs	r6, #250
 296 00da B600     		lsls	r6, r6, #2
ARM GAS  C:\Users\matil\AppData\Local\Temp\ccyDoMjQ.s 			page 8


 297 00dc 404D     		ldr	r5, .L15+40
 298 00de 3300     		movs	r3, r6
 299 00e0 0722     		movs	r2, #7
 300 00e2 2100     		movs	r1, r4
 301 00e4 2800     		movs	r0, r5
 302 00e6 FFF7FEFF 		bl	HAL_UART_Transmit
 303              	.LVL12:
 304              	.LBE2:
  68:Src/TEMP_PID.c ****             }
 305              		.loc 1 68 17 view .LVU73
 306              	.LBB3:
  68:Src/TEMP_PID.c ****             }
 307              		.loc 1 68 17 view .LVU74
 308 00ea 6022     		movs	r2, #96
 309 00ec 0021     		movs	r1, #0
 310 00ee 02A8     		add	r0, sp, #8
 311 00f0 FFF7FEFF 		bl	memset
 312              	.LVL13:
  68:Src/TEMP_PID.c ****             }
 313              		.loc 1 68 17 view .LVU75
 314 00f4 3B4B     		ldr	r3, .L15+44
 315 00f6 2200     		movs	r2, r4
 316 00f8 83CB     		ldmia	r3!, {r0, r1, r7}
 317 00fa 83C2     		stmia	r2!, {r0, r1, r7}
 318 00fc 03CB     		ldmia	r3!, {r0, r1}
 319 00fe 03C2     		stmia	r2!, {r0, r1}
 320              	.LVL14:
  68:Src/TEMP_PID.c ****             }
 321              		.loc 1 68 17 view .LVU76
 322 0100 3300     		movs	r3, r6
 323 0102 1322     		movs	r2, #19
 324 0104 2100     		movs	r1, r4
 325 0106 2800     		movs	r0, r5
 326 0108 FFF7FEFF 		bl	HAL_UART_Transmit
 327              	.LVL15:
 328              	.LBE3:
  68:Src/TEMP_PID.c ****             }
 329              		.loc 1 68 17 view .LVU77
 330              	.LBB4:
  68:Src/TEMP_PID.c ****             }
 331              		.loc 1 68 17 view .LVU78
 332 010c 6022     		movs	r2, #96
 333 010e 0021     		movs	r1, #0
 334 0110 02A8     		add	r0, sp, #8
 335 0112 FFF7FEFF 		bl	memset
 336              	.LVL16:
  68:Src/TEMP_PID.c ****             }
 337              		.loc 1 68 17 view .LVU79
 338 0116 344B     		ldr	r3, .L15+48
 339 0118 1A68     		ldr	r2, [r3]
 340 011a 0192     		str	r2, [sp, #4]
 341 011c 1B79     		ldrb	r3, [r3, #4]
 342 011e 2371     		strb	r3, [r4, #4]
 343              	.LVL17:
  68:Src/TEMP_PID.c ****             }
 344              		.loc 1 68 17 view .LVU80
 345 0120 3300     		movs	r3, r6
ARM GAS  C:\Users\matil\AppData\Local\Temp\ccyDoMjQ.s 			page 9


 346 0122 0422     		movs	r2, #4
 347 0124 2100     		movs	r1, r4
 348 0126 2800     		movs	r0, r5
 349 0128 FFF7FEFF 		bl	HAL_UART_Transmit
 350              	.LVL18:
 351 012c C4E7     		b	.L10
 352              	.LVL19:
 353              	.L8:
  68:Src/TEMP_PID.c ****             }
 354              		.loc 1 68 17 is_stmt 0 view .LVU81
 355              	.LBE4:
  75:Src/TEMP_PID.c ****         if (State.TEMP_PID_LOCK == 1)
 356              		.loc 1 75 9 is_stmt 1 view .LVU82
  75:Src/TEMP_PID.c ****         if (State.TEMP_PID_LOCK == 1)
 357              		.loc 1 75 35 is_stmt 0 view .LVU83
 358 012e 224B     		ldr	r3, .L15
 359 0130 294A     		ldr	r2, .L15+32
 360 0132 0021     		movs	r1, #0
 361 0134 9950     		str	r1, [r3, r2]
  76:Src/TEMP_PID.c ****         {
 362              		.loc 1 76 9 is_stmt 1 view .LVU84
  76:Src/TEMP_PID.c ****         {
 363              		.loc 1 76 18 is_stmt 0 view .LVU85
 364 0136 043A     		subs	r2, r2, #4
 365 0138 9B58     		ldr	r3, [r3, r2]
  76:Src/TEMP_PID.c ****         {
 366              		.loc 1 76 12 view .LVU86
 367 013a 012B     		cmp	r3, #1
 368 013c 05D0     		beq	.L14
 369              	.L11:
  78:Src/TEMP_PID.c ****         }
 370              		.loc 1 78 13 is_stmt 1 view .LVU87
  78:Src/TEMP_PID.c ****         }
 371              		.loc 1 78 55 view .LVU88
  80:Src/TEMP_PID.c ****     }
 372              		.loc 1 80 9 view .LVU89
  80:Src/TEMP_PID.c ****     }
 373              		.loc 1 80 29 is_stmt 0 view .LVU90
 374 013e 1E4A     		ldr	r2, .L15
 375 0140 A923     		movs	r3, #169
 376 0142 DB00     		lsls	r3, r3, #3
 377 0144 0021     		movs	r1, #0
 378 0146 D150     		str	r1, [r2, r3]
 379 0148 AEE7     		b	.L4
 380              	.L14:
 381              	.LBB5:
  78:Src/TEMP_PID.c ****         }
 382              		.loc 1 78 13 is_stmt 1 view .LVU91
 383 014a 01AC     		add	r4, sp, #4
 384 014c 6022     		movs	r2, #96
 385 014e 02A8     		add	r0, sp, #8
 386 0150 FFF7FEFF 		bl	memset
 387              	.LVL20:
  78:Src/TEMP_PID.c ****         }
 388              		.loc 1 78 13 view .LVU92
 389 0154 254B     		ldr	r3, .L15+52
 390 0156 2200     		movs	r2, r4
ARM GAS  C:\Users\matil\AppData\Local\Temp\ccyDoMjQ.s 			page 10


 391 0158 03CB     		ldmia	r3!, {r0, r1}
 392 015a 03C2     		stmia	r2!, {r0, r1}
 393              	.LVL21:
  78:Src/TEMP_PID.c ****         }
 394              		.loc 1 78 13 view .LVU93
 395 015c FA26     		movs	r6, #250
 396 015e B600     		lsls	r6, r6, #2
 397 0160 1F4D     		ldr	r5, .L15+40
 398 0162 3300     		movs	r3, r6
 399 0164 0722     		movs	r2, #7
 400 0166 2100     		movs	r1, r4
 401 0168 2800     		movs	r0, r5
 402 016a FFF7FEFF 		bl	HAL_UART_Transmit
 403              	.LVL22:
 404              	.LBE5:
  78:Src/TEMP_PID.c ****         }
 405              		.loc 1 78 13 view .LVU94
 406              	.LBB6:
  78:Src/TEMP_PID.c ****         }
 407              		.loc 1 78 13 view .LVU95
 408 016e 6022     		movs	r2, #96
 409 0170 0021     		movs	r1, #0
 410 0172 02A8     		add	r0, sp, #8
 411 0174 FFF7FEFF 		bl	memset
 412              	.LVL23:
  78:Src/TEMP_PID.c ****         }
 413              		.loc 1 78 13 view .LVU96
 414 0178 1D4B     		ldr	r3, .L15+56
 415 017a 2200     		movs	r2, r4
 416 017c 83CB     		ldmia	r3!, {r0, r1, r7}
 417 017e 83C2     		stmia	r2!, {r0, r1, r7}
 418 0180 03CB     		ldmia	r3!, {r0, r1}
 419 0182 03C2     		stmia	r2!, {r0, r1}
 420 0184 1B88     		ldrh	r3, [r3]
 421 0186 1380     		strh	r3, [r2]
 422              	.LVL24:
  78:Src/TEMP_PID.c ****         }
 423              		.loc 1 78 13 view .LVU97
 424 0188 3300     		movs	r3, r6
 425 018a 1522     		movs	r2, #21
 426 018c 2100     		movs	r1, r4
 427 018e 2800     		movs	r0, r5
 428 0190 FFF7FEFF 		bl	HAL_UART_Transmit
 429              	.LVL25:
 430              	.LBE6:
  78:Src/TEMP_PID.c ****         }
 431              		.loc 1 78 13 view .LVU98
 432              	.LBB7:
  78:Src/TEMP_PID.c ****         }
 433              		.loc 1 78 13 view .LVU99
 434 0194 6022     		movs	r2, #96
 435 0196 0021     		movs	r1, #0
 436 0198 02A8     		add	r0, sp, #8
 437 019a FFF7FEFF 		bl	memset
 438              	.LVL26:
  78:Src/TEMP_PID.c ****         }
 439              		.loc 1 78 13 view .LVU100
ARM GAS  C:\Users\matil\AppData\Local\Temp\ccyDoMjQ.s 			page 11


 440 019e 124B     		ldr	r3, .L15+48
 441 01a0 1A68     		ldr	r2, [r3]
 442 01a2 0192     		str	r2, [sp, #4]
 443 01a4 1B79     		ldrb	r3, [r3, #4]
 444 01a6 2371     		strb	r3, [r4, #4]
 445              	.LVL27:
  78:Src/TEMP_PID.c ****         }
 446              		.loc 1 78 13 view .LVU101
 447 01a8 3300     		movs	r3, r6
 448 01aa 0422     		movs	r2, #4
 449 01ac 2100     		movs	r1, r4
 450 01ae 2800     		movs	r0, r5
 451 01b0 FFF7FEFF 		bl	HAL_UART_Transmit
 452              	.LVL28:
 453 01b4 C3E7     		b	.L11
 454              	.L16:
 455 01b6 C046     		.align	2
 456              	.L15:
 457 01b8 00000000 		.word	State
 458 01bc 005A6202 		.word	40000000
 459 01c0 34050000 		.word	1332
 460 01c4 3C050000 		.word	1340
 461 01c8 70FEFFFF 		.word	-400
 462 01cc 44050000 		.word	1348
 463 01d0 002C0140 		.word	1073818624
 464 01d4 00040050 		.word	1342178304
 465 01d8 4C050000 		.word	1356
 466 01dc 00000000 		.word	.LC2
 467 01e0 00000000 		.word	huart2
 468 01e4 08000000 		.word	.LC5
 469 01e8 1C000000 		.word	.LC7
 470 01ec 24000000 		.word	.LC9
 471 01f0 2C000000 		.word	.LC11
 472              	.LBE7:
 473              		.cfi_endproc
 474              	.LFE285:
 476              		.text
 477              	.Letext0:
 478              		.file 2 "c:\\gnu tools arm embedded\\arm-none-eabi\\include\\machine\\_default_types.h"
 479              		.file 3 "c:\\gnu tools arm embedded\\arm-none-eabi\\include\\sys\\_stdint.h"
 480              		.file 4 "Drivers/CMSIS/Device/ST/STM32G0xx/Include/system_stm32g0xx.h"
 481              		.file 5 "Drivers/CMSIS/Device/ST/STM32G0xx/Include/stm32g071xx.h"
 482              		.file 6 "Drivers/STM32G0xx_HAL_Driver/Inc/stm32g0xx_hal_def.h"
 483              		.file 7 "Drivers/STM32G0xx_HAL_Driver/Inc/stm32g0xx_hal_dma.h"
 484              		.file 8 "Drivers/STM32G0xx_HAL_Driver/Inc/stm32g0xx_hal_flash.h"
 485              		.file 9 "Drivers/STM32G0xx_HAL_Driver/Inc/stm32g0xx_hal_spi.h"
 486              		.file 10 "Drivers/STM32G0xx_HAL_Driver/Inc/stm32g0xx_hal_tim.h"
 487              		.file 11 "Drivers/STM32G0xx_HAL_Driver/Inc/stm32g0xx_hal_uart.h"
 488              		.file 12 "Drivers/STM32G0xx_HAL_Driver/Inc/stm32g0xx_hal.h"
 489              		.file 13 "c:\\gnu tools arm embedded\\arm-none-eabi\\include\\sys\\lock.h"
 490              		.file 14 "c:\\gnu tools arm embedded\\arm-none-eabi\\include\\sys\\_types.h"
 491              		.file 15 "c:\\gnu tools arm embedded\\lib\\gcc\\arm-none-eabi\\9.2.1\\include\\stddef.h"
 492              		.file 16 "c:\\gnu tools arm embedded\\arm-none-eabi\\include\\sys\\reent.h"
 493              		.file 17 "Inc/usart.h"
 494              		.file 18 "Inc/state.h"
 495              		.file 19 "Inc/spi.h"
 496              		.file 20 "Inc/tim.h"
ARM GAS  C:\Users\matil\AppData\Local\Temp\ccyDoMjQ.s 			page 12


 497              		.file 21 "c:\\gnu tools arm embedded\\arm-none-eabi\\include\\stdlib.h"
 498              		.file 22 "Inc/values.h"
 499              		.file 23 "Drivers/STM32G0xx_HAL_Driver/Inc/stm32g0xx_hal_gpio.h"
 500              		.file 24 "<built-in>"
ARM GAS  C:\Users\matil\AppData\Local\Temp\ccyDoMjQ.s 			page 13

