ARM GAS  C:\Users\matil\AppData\Local\Temp\ccHKrOl0.s 			page 1


   1              		.cpu cortex-m0plus
   2              		.eabi_attribute 20, 1
   3              		.eabi_attribute 21, 1
   4              		.eabi_attribute 23, 3
   5              		.eabi_attribute 24, 1
   6              		.eabi_attribute 25, 1
   7              		.eabi_attribute 26, 1
   8              		.eabi_attribute 30, 1
   9              		.eabi_attribute 34, 0
  10              		.eabi_attribute 18, 4
  11              		.file	"values.c"
  12              		.text
  13              	.Ltext0:
  14              		.cfi_sections	.debug_frame
  15              		.global	__aeabi_lmul
  16              		.global	__aeabi_uldivmod
  17              		.section	.text.Voltage_nV,"ax",%progbits
  18              		.align	1
  19              		.global	Voltage_nV
  20              		.arch armv6s-m
  21              		.syntax unified
  22              		.code	16
  23              		.thumb_func
  24              		.fpu softvfp
  26              	Voltage_nV:
  27              	.LVL0:
  28              	.LFB284:
  29              		.file 1 "Src/values.c"
   1:Src/values.c  **** #include "usart.h"
   2:Src/values.c  **** #include <stdio.h>
   3:Src/values.c  **** #include "state.h"
   4:Src/values.c  **** #include "usart_utils.h"
   5:Src/values.c  **** #include "ADC.h"
   6:Src/values.c  **** #include "spi.h"
   7:Src/values.c  **** #include "DAC.h"
   8:Src/values.c  **** #include "tim.h"
   9:Src/values.c  **** #include <stdlib.h>
  10:Src/values.c  **** 
  11:Src/values.c  **** extern state State;
  12:Src/values.c  **** 
  13:Src/values.c  **** //Returns voltage in [nV] measured by adc channel ADC_CH.
  14:Src/values.c  **** uint64_t Voltage_nV(uint8_t ADC_CH)
  15:Src/values.c  **** {
  30              		.loc 1 15 1 view -0
  31              		.cfi_startproc
  32              		@ args = 0, pretend = 0, frame = 0
  33              		@ frame_needed = 0, uses_anonymous_args = 0
  34              		.loc 1 15 1 is_stmt 0 view .LVU1
  35 0000 10B5     		push	{r4, lr}
  36              	.LCFI0:
  37              		.cfi_def_cfa_offset 8
  38              		.cfi_offset 4, -8
  39              		.cfi_offset 14, -4
  16:Src/values.c  ****     return (((uint64_t)State.ADC_ValuesFiltered[ADC_CH] * 1800000000) / 0xffffff);
  40              		.loc 1 16 5 is_stmt 1 view .LVU2
  41              		.loc 1 16 48 is_stmt 0 view .LVU3
  42 0002 2530     		adds	r0, r0, #37
ARM GAS  C:\Users\matil\AppData\Local\Temp\ccHKrOl0.s 			page 2


  43              	.LVL1:
  44              		.loc 1 16 48 view .LVU4
  45 0004 FF30     		adds	r0, r0, #255
  46 0006 8000     		lsls	r0, r0, #2
  47 0008 054B     		ldr	r3, .L2
  48 000a C058     		ldr	r0, [r0, r3]
  49              		.loc 1 16 57 view .LVU5
  50 000c 054A     		ldr	r2, .L2+4
  51 000e 0023     		movs	r3, #0
  52 0010 0021     		movs	r1, #0
  53 0012 FFF7FEFF 		bl	__aeabi_lmul
  54              	.LVL2:
  55              		.loc 1 16 71 view .LVU6
  56 0016 044A     		ldr	r2, .L2+8
  57 0018 0023     		movs	r3, #0
  58 001a FFF7FEFF 		bl	__aeabi_uldivmod
  59              	.LVL3:
  17:Src/values.c  **** };
  60              		.loc 1 17 1 view .LVU7
  61              		@ sp needed
  62 001e 10BD     		pop	{r4, pc}
  63              	.L3:
  64              		.align	2
  65              	.L2:
  66 0020 00000000 		.word	State
  67 0024 00D2496B 		.word	1800000000
  68 0028 FFFFFF00 		.word	16777215
  69              		.cfi_endproc
  70              	.LFE284:
  72              		.section	.text.Voltage,"ax",%progbits
  73              		.align	1
  74              		.global	Voltage
  75              		.syntax unified
  76              		.code	16
  77              		.thumb_func
  78              		.fpu softvfp
  80              	Voltage:
  81              	.LVL4:
  82              	.LFB285:
  18:Src/values.c  **** 
  19:Src/values.c  **** //Returns voltage in [uV] measured by adc channel ADC_CH.
  20:Src/values.c  **** uint64_t Voltage(uint8_t ADC_CH)
  21:Src/values.c  **** {
  83              		.loc 1 21 1 is_stmt 1 view -0
  84              		.cfi_startproc
  85              		@ args = 0, pretend = 0, frame = 0
  86              		@ frame_needed = 0, uses_anonymous_args = 0
  87              		.loc 1 21 1 is_stmt 0 view .LVU9
  88 0000 10B5     		push	{r4, lr}
  89              	.LCFI1:
  90              		.cfi_def_cfa_offset 8
  91              		.cfi_offset 4, -8
  92              		.cfi_offset 14, -4
  22:Src/values.c  ****     return (((uint64_t)State.ADC_ValuesFiltered[ADC_CH] * 1800000) / 0xffffff);
  93              		.loc 1 22 5 is_stmt 1 view .LVU10
  94              		.loc 1 22 48 is_stmt 0 view .LVU11
  95 0002 2530     		adds	r0, r0, #37
ARM GAS  C:\Users\matil\AppData\Local\Temp\ccHKrOl0.s 			page 3


  96              	.LVL5:
  97              		.loc 1 22 48 view .LVU12
  98 0004 FF30     		adds	r0, r0, #255
  99 0006 8000     		lsls	r0, r0, #2
 100 0008 054B     		ldr	r3, .L5
 101 000a C058     		ldr	r0, [r0, r3]
 102              		.loc 1 22 57 view .LVU13
 103 000c 054A     		ldr	r2, .L5+4
 104 000e 0023     		movs	r3, #0
 105 0010 0021     		movs	r1, #0
 106 0012 FFF7FEFF 		bl	__aeabi_lmul
 107              	.LVL6:
 108              		.loc 1 22 68 view .LVU14
 109 0016 044A     		ldr	r2, .L5+8
 110 0018 0023     		movs	r3, #0
 111 001a FFF7FEFF 		bl	__aeabi_uldivmod
 112              	.LVL7:
  23:Src/values.c  **** };
 113              		.loc 1 23 1 view .LVU15
 114              		@ sp needed
 115 001e 10BD     		pop	{r4, pc}
 116              	.L6:
 117              		.align	2
 118              	.L5:
 119 0020 00000000 		.word	State
 120 0024 40771B00 		.word	1800000
 121 0028 FFFFFF00 		.word	16777215
 122              		.cfi_endproc
 123              	.LFE285:
 125              		.section	.text.Phase,"ax",%progbits
 126              		.align	1
 127              		.global	Phase
 128              		.syntax unified
 129              		.code	16
 130              		.thumb_func
 131              		.fpu softvfp
 133              	Phase:
 134              	.LVL8:
 135              	.LFB286:
  24:Src/values.c  **** 
  25:Src/values.c  **** //Returns Phase absolute value in [deg e-3] measured by adc channel ADC_CH.
  26:Src/values.c  **** uint64_t Phase(uint8_t ADC_CH)
  27:Src/values.c  **** {
 136              		.loc 1 27 1 is_stmt 1 view -0
 137              		.cfi_startproc
 138              		@ args = 0, pretend = 0, frame = 0
 139              		@ frame_needed = 0, uses_anonymous_args = 0
 140              		.loc 1 27 1 is_stmt 0 view .LVU17
 141 0000 10B5     		push	{r4, lr}
 142              	.LCFI2:
 143              		.cfi_def_cfa_offset 8
 144              		.cfi_offset 4, -8
 145              		.cfi_offset 14, -4
  28:Src/values.c  ****     return (1800000000 - Voltage_nV(ADC_CH)) / 10000;
 146              		.loc 1 28 5 is_stmt 1 view .LVU18
 147              		.loc 1 28 26 is_stmt 0 view .LVU19
 148 0002 FFF7FEFF 		bl	Voltage_nV
ARM GAS  C:\Users\matil\AppData\Local\Temp\ccHKrOl0.s 			page 4


 149              	.LVL9:
 150              		.loc 1 28 24 view .LVU20
 151 0006 054A     		ldr	r2, .L8
 152 0008 0023     		movs	r3, #0
 153 000a 121A     		subs	r2, r2, r0
 154 000c 8B41     		sbcs	r3, r3, r1
 155 000e 1000     		movs	r0, r2
 156 0010 1900     		movs	r1, r3
 157              		.loc 1 28 46 view .LVU21
 158 0012 034A     		ldr	r2, .L8+4
 159 0014 0023     		movs	r3, #0
 160 0016 FFF7FEFF 		bl	__aeabi_uldivmod
 161              	.LVL10:
  29:Src/values.c  **** };
 162              		.loc 1 29 1 view .LVU22
 163              		@ sp needed
 164 001a 10BD     		pop	{r4, pc}
 165              	.L9:
 166              		.align	2
 167              	.L8:
 168 001c 00D2496B 		.word	1800000000
 169 0020 10270000 		.word	10000
 170              		.cfi_endproc
 171              	.LFE286:
 173              		.section	.text.Phase_u,"ax",%progbits
 174              		.align	1
 175              		.global	Phase_u
 176              		.syntax unified
 177              		.code	16
 178              		.thumb_func
 179              		.fpu softvfp
 181              	Phase_u:
 182              	.LVL11:
 183              	.LFB287:
  30:Src/values.c  **** 
  31:Src/values.c  **** //Returns Phase absolute value in [deg e-6] measured by adc channel ADC_CH.
  32:Src/values.c  **** uint64_t Phase_u(uint8_t ADC_CH)
  33:Src/values.c  **** {
 184              		.loc 1 33 1 is_stmt 1 view -0
 185              		.cfi_startproc
 186              		@ args = 0, pretend = 0, frame = 0
 187              		@ frame_needed = 0, uses_anonymous_args = 0
 188              		.loc 1 33 1 is_stmt 0 view .LVU24
 189 0000 10B5     		push	{r4, lr}
 190              	.LCFI3:
 191              		.cfi_def_cfa_offset 8
 192              		.cfi_offset 4, -8
 193              		.cfi_offset 14, -4
  34:Src/values.c  ****     return (1800000000 - Voltage_nV(ADC_CH)) / 10;
 194              		.loc 1 34 5 is_stmt 1 view .LVU25
 195              		.loc 1 34 26 is_stmt 0 view .LVU26
 196 0002 FFF7FEFF 		bl	Voltage_nV
 197              	.LVL12:
 198              		.loc 1 34 24 view .LVU27
 199 0006 054A     		ldr	r2, .L11
 200 0008 0023     		movs	r3, #0
 201 000a 121A     		subs	r2, r2, r0
ARM GAS  C:\Users\matil\AppData\Local\Temp\ccHKrOl0.s 			page 5


 202 000c 8B41     		sbcs	r3, r3, r1
 203 000e 1000     		movs	r0, r2
 204 0010 1900     		movs	r1, r3
 205              		.loc 1 34 46 view .LVU28
 206 0012 0A22     		movs	r2, #10
 207 0014 0023     		movs	r3, #0
 208 0016 FFF7FEFF 		bl	__aeabi_uldivmod
 209              	.LVL13:
  35:Src/values.c  **** };
 210              		.loc 1 35 1 view .LVU29
 211              		@ sp needed
 212 001a 10BD     		pop	{r4, pc}
 213              	.L12:
 214              		.align	2
 215              	.L11:
 216 001c 00D2496B 		.word	1800000000
 217              		.cfi_endproc
 218              	.LFE287:
 220              		.section	.text.Temperature,"ax",%progbits
 221              		.align	1
 222              		.global	Temperature
 223              		.syntax unified
 224              		.code	16
 225              		.thumb_func
 226              		.fpu softvfp
 228              	Temperature:
 229              	.LFB288:
  36:Src/values.c  **** 
  37:Src/values.c  **** //Returns Temperature in [deg C e-6] measured by adc thermometer channel.
  38:Src/values.c  **** int Temperature()
  39:Src/values.c  **** {
 230              		.loc 1 39 1 is_stmt 1 view -0
 231              		.cfi_startproc
 232              		@ args = 0, pretend = 0, frame = 0
 233              		@ frame_needed = 0, uses_anonymous_args = 0
 234 0000 10B5     		push	{r4, lr}
 235              	.LCFI4:
 236              		.cfi_def_cfa_offset 8
 237              		.cfi_offset 4, -8
 238              		.cfi_offset 14, -4
  40:Src/values.c  ****     return (-45000000 - 175000000 / 8 + 17500 * Voltage(ADC_T_CH) / 264);
 239              		.loc 1 40 5 view .LVU31
 240              		.loc 1 40 49 is_stmt 0 view .LVU32
 241 0002 0720     		movs	r0, #7
 242 0004 FFF7FEFF 		bl	Voltage
 243              	.LVL14:
 244              		.loc 1 40 47 view .LVU33
 245 0008 064A     		ldr	r2, .L14
 246 000a 0023     		movs	r3, #0
 247 000c FFF7FEFF 		bl	__aeabi_lmul
 248              	.LVL15:
 249              		.loc 1 40 67 view .LVU34
 250 0010 8422     		movs	r2, #132
 251 0012 5200     		lsls	r2, r2, #1
 252 0014 0023     		movs	r3, #0
 253 0016 FFF7FEFF 		bl	__aeabi_uldivmod
 254              	.LVL16:
ARM GAS  C:\Users\matil\AppData\Local\Temp\ccHKrOl0.s 			page 6


 255              		.loc 1 40 39 view .LVU35
 256 001a 034B     		ldr	r3, .L14+4
 257 001c 9C46     		mov	ip, r3
 258 001e 6044     		add	r0, r0, ip
  41:Src/values.c  **** };
 259              		.loc 1 41 1 view .LVU36
 260              		@ sp needed
 261 0020 10BD     		pop	{r4, pc}
 262              	.L15:
 263 0022 C046     		.align	2
 264              	.L14:
 265 0024 5C440000 		.word	17500
 266 0028 889103FC 		.word	-66875000
 267              		.cfi_endproc
 268              	.LFE288:
 270              		.section	.text.Relative_Power,"ax",%progbits
 271              		.align	1
 272              		.global	Relative_Power
 273              		.syntax unified
 274              		.code	16
 275              		.thumb_func
 276              		.fpu softvfp
 278              	Relative_Power:
 279              	.LVL17:
 280              	.LFB289:
  42:Src/values.c  **** 
  43:Src/values.c  **** //Returns Relative Power in [dB e-3] measured by adc channel ADC_CH.
  44:Src/values.c  **** int64_t Relative_Power(uint8_t ADC_CH)
  45:Src/values.c  **** {
 281              		.loc 1 45 1 is_stmt 1 view -0
 282              		.cfi_startproc
 283              		@ args = 0, pretend = 0, frame = 0
 284              		@ frame_needed = 0, uses_anonymous_args = 0
 285              		.loc 1 45 1 is_stmt 0 view .LVU38
 286 0000 10B5     		push	{r4, lr}
 287              	.LCFI5:
 288              		.cfi_def_cfa_offset 8
 289              		.cfi_offset 4, -8
 290              		.cfi_offset 14, -4
  46:Src/values.c  ****     return ((Voltage(ADC_CH) / 30) - 30000);
 291              		.loc 1 46 5 is_stmt 1 view .LVU39
 292              		.loc 1 46 14 is_stmt 0 view .LVU40
 293 0002 FFF7FEFF 		bl	Voltage
 294              	.LVL18:
 295              		.loc 1 46 30 view .LVU41
 296 0006 1E22     		movs	r2, #30
 297 0008 0023     		movs	r3, #0
 298 000a FFF7FEFF 		bl	__aeabi_uldivmod
 299              	.LVL19:
 300              		.loc 1 46 36 view .LVU42
 301 000e 034A     		ldr	r2, .L17
 302 0010 0123     		movs	r3, #1
 303 0012 5B42     		rsbs	r3, r3, #0
 304 0014 8018     		adds	r0, r0, r2
 305 0016 5941     		adcs	r1, r1, r3
  47:Src/values.c  **** };
 306              		.loc 1 47 1 view .LVU43
ARM GAS  C:\Users\matil\AppData\Local\Temp\ccHKrOl0.s 			page 7


 307              		@ sp needed
 308 0018 10BD     		pop	{r4, pc}
 309              	.L18:
 310 001a C046     		.align	2
 311              	.L17:
 312 001c D08AFFFF 		.word	-30000
 313              		.cfi_endproc
 314              	.LFE289:
 316              		.global	__aeabi_ldivmod
 317              		.section	.text.RMS_Power,"ax",%progbits
 318              		.align	1
 319              		.global	RMS_Power
 320              		.syntax unified
 321              		.code	16
 322              		.thumb_func
 323              		.fpu softvfp
 325              	RMS_Power:
 326              	.LVL20:
 327              	.LFB290:
  48:Src/values.c  **** //Returns Power in [dBm  e-3] measured by adc channel ADC_CH.
  49:Src/values.c  **** int64_t RMS_Power(uint8_t ADC_CH)
  50:Src/values.c  **** {
 328              		.loc 1 50 1 is_stmt 1 view -0
 329              		.cfi_startproc
 330              		@ args = 0, pretend = 0, frame = 128
 331              		@ frame_needed = 0, uses_anonymous_args = 0
 332              		.loc 1 50 1 is_stmt 0 view .LVU45
 333 0000 10B5     		push	{r4, lr}
 334              	.LCFI6:
 335              		.cfi_def_cfa_offset 8
 336              		.cfi_offset 4, -8
 337              		.cfi_offset 14, -4
 338 0002 A0B0     		sub	sp, sp, #128
 339              	.LCFI7:
 340              		.cfi_def_cfa_offset 136
 341 0004 0400     		movs	r4, r0
  51:Src/values.c  ****     const int64_t cal[16] = {0, 0, 0, 0, 399874, 0, 0, 0, 0, 448454, 427524, 0, 0, 0, 0, 408285}; /
 342              		.loc 1 51 5 is_stmt 1 view .LVU46
 343              		.loc 1 51 19 is_stmt 0 view .LVU47
 344 0006 8022     		movs	r2, #128
 345 0008 0B49     		ldr	r1, .L20
 346 000a 6846     		mov	r0, sp
 347              	.LVL21:
 348              		.loc 1 51 19 view .LVU48
 349 000c FFF7FEFF 		bl	memcpy
 350              	.LVL22:
  52:Src/values.c  ****     return (int64_t)(Voltage(ADC_CH) - cal[ADC_CH]) / 20 - 65000;
 351              		.loc 1 52 5 is_stmt 1 view .LVU49
 352              		.loc 1 52 22 is_stmt 0 view .LVU50
 353 0010 2000     		movs	r0, r4
 354 0012 FFF7FEFF 		bl	Voltage
 355              	.LVL23:
 356              		.loc 1 52 43 view .LVU51
 357 0016 E400     		lsls	r4, r4, #3
 358 0018 6C44     		add	r4, r4, sp
 359 001a 2268     		ldr	r2, [r4]
 360 001c 6368     		ldr	r3, [r4, #4]
ARM GAS  C:\Users\matil\AppData\Local\Temp\ccHKrOl0.s 			page 8


 361              		.loc 1 52 38 view .LVU52
 362 001e 801A     		subs	r0, r0, r2
 363 0020 9941     		sbcs	r1, r1, r3
 364              		.loc 1 52 53 view .LVU53
 365 0022 1422     		movs	r2, #20
 366 0024 0023     		movs	r3, #0
 367 0026 FFF7FEFF 		bl	__aeabi_ldivmod
 368              	.LVL24:
 369              		.loc 1 52 58 view .LVU54
 370 002a 044A     		ldr	r2, .L20+4
 371 002c 0123     		movs	r3, #1
 372 002e 5B42     		rsbs	r3, r3, #0
 373 0030 8018     		adds	r0, r0, r2
 374 0032 5941     		adcs	r1, r1, r3
  53:Src/values.c  **** };
 375              		.loc 1 53 1 view .LVU55
 376 0034 20B0     		add	sp, sp, #128
 377              		@ sp needed
 378 0036 10BD     		pop	{r4, pc}
 379              	.L21:
 380              		.align	2
 381              	.L20:
 382 0038 00000000 		.word	.LC0
 383 003c 1802FFFF 		.word	-65000
 384              		.cfi_endproc
 385              	.LFE290:
 387              		.section	.rodata
 388              		.align	3
 389              	.LC0:
 390 0000 00000000 		.word	0
 391 0004 00000000 		.word	0
 392 0008 00000000 		.word	0
 393 000c 00000000 		.word	0
 394 0010 00000000 		.word	0
 395 0014 00000000 		.word	0
 396 0018 00000000 		.word	0
 397 001c 00000000 		.word	0
 398 0020 021A0600 		.word	399874
 399 0024 00000000 		.word	0
 400 0028 00000000 		.word	0
 401 002c 00000000 		.word	0
 402 0030 00000000 		.word	0
 403 0034 00000000 		.word	0
 404 0038 00000000 		.word	0
 405 003c 00000000 		.word	0
 406 0040 00000000 		.word	0
 407 0044 00000000 		.word	0
 408 0048 C6D70600 		.word	448454
 409 004c 00000000 		.word	0
 410 0050 04860600 		.word	427524
 411 0054 00000000 		.word	0
 412 0058 00000000 		.word	0
 413 005c 00000000 		.word	0
 414 0060 00000000 		.word	0
 415 0064 00000000 		.word	0
 416 0068 00000000 		.word	0
 417 006c 00000000 		.word	0
ARM GAS  C:\Users\matil\AppData\Local\Temp\ccHKrOl0.s 			page 9


 418 0070 00000000 		.word	0
 419 0074 00000000 		.word	0
 420 0078 DD3A0600 		.word	408285
 421 007c 00000000 		.word	0
 422              		.text
 423              	.Letext0:
 424              		.file 2 "c:\\gnu tools arm embedded\\arm-none-eabi\\include\\machine\\_default_types.h"
 425              		.file 3 "c:\\gnu tools arm embedded\\arm-none-eabi\\include\\sys\\_stdint.h"
 426              		.file 4 "Drivers/CMSIS/Device/ST/STM32G0xx/Include/system_stm32g0xx.h"
 427              		.file 5 "Drivers/CMSIS/Device/ST/STM32G0xx/Include/stm32g071xx.h"
 428              		.file 6 "Drivers/STM32G0xx_HAL_Driver/Inc/stm32g0xx_hal_def.h"
 429              		.file 7 "Drivers/STM32G0xx_HAL_Driver/Inc/stm32g0xx_hal_dma.h"
 430              		.file 8 "Drivers/STM32G0xx_HAL_Driver/Inc/stm32g0xx_hal_flash.h"
 431              		.file 9 "Drivers/STM32G0xx_HAL_Driver/Inc/stm32g0xx_hal_spi.h"
 432              		.file 10 "Drivers/STM32G0xx_HAL_Driver/Inc/stm32g0xx_hal_tim.h"
 433              		.file 11 "Drivers/STM32G0xx_HAL_Driver/Inc/stm32g0xx_hal_uart.h"
 434              		.file 12 "Drivers/STM32G0xx_HAL_Driver/Inc/stm32g0xx_hal.h"
 435              		.file 13 "c:\\gnu tools arm embedded\\arm-none-eabi\\include\\sys\\lock.h"
 436              		.file 14 "c:\\gnu tools arm embedded\\arm-none-eabi\\include\\sys\\_types.h"
 437              		.file 15 "c:\\gnu tools arm embedded\\lib\\gcc\\arm-none-eabi\\9.2.1\\include\\stddef.h"
 438              		.file 16 "c:\\gnu tools arm embedded\\arm-none-eabi\\include\\sys\\reent.h"
 439              		.file 17 "Inc/usart.h"
 440              		.file 18 "Inc/state.h"
 441              		.file 19 "Inc/spi.h"
 442              		.file 20 "Inc/tim.h"
 443              		.file 21 "c:\\gnu tools arm embedded\\arm-none-eabi\\include\\stdlib.h"
 444              		.file 22 "<built-in>"
ARM GAS  C:\Users\matil\AppData\Local\Temp\ccHKrOl0.s 			page 10

